target datalayout = "e-m:e-p270:32:32-p271:32:32-p272:64:64-i64:64-i128:128-f80:128-n8:16:32:64-S128"
target triple = "x86_64-unknown-linux-gnu"

%class.params_ref = type { ptr }
%class.proto_model = type <{ %class.model_core, %class.plugin_manager, ptr, %class.obj_hashtable, %class.ptr_vector.9, %class.model_evaluator, %class.th_rewriter, i8, [7 x i8] }>
%class.model_core = type { ptr, ptr, i32, [4 x i8], %class.obj_map, %class.obj_map.0, %class.ptr_vector, %class.ptr_vector, %class.ptr_vector }
%class.obj_map = type { %class.core_hashtable }
%class.core_hashtable = type <{ ptr, i32, i32, i32, [4 x i8] }>
%class.obj_map.0 = type { %class.core_hashtable.1 }
%class.core_hashtable.1 = type <{ ptr, i32, i32, i32, [4 x i8] }>
%class.ptr_vector = type { %class.vector }
%class.vector = type { ptr }
%class.plugin_manager = type { %class.ptr_vector.5, %class.ptr_vector.5 }
%class.ptr_vector.5 = type { %class.vector.6 }
%class.vector.6 = type { ptr }
%class.obj_hashtable = type { %class.core_hashtable.base.8, [4 x i8] }
%class.core_hashtable.base.8 = type <{ ptr, i32, i32, i32 }>
%class.ptr_vector.9 = type { %class.vector.10 }
%class.vector.10 = type { ptr }
%class.model_evaluator = type { ptr }
%class.th_rewriter = type { ptr, %class.params_ref }
%class.symbol = type { ptr }
%class.decl = type { %class.ast, %class.symbol, ptr }
%class.ast = type { i32, i24, i32, i32 }
%class.ref_vector_core = type { %class.ref_manager_wrapper, %class.ptr_vector.9 }
%class.ref_manager_wrapper = type { ptr }
%class.ref_vector = type { %class.ref_vector_core }
%class.simple_factory = type { %class.value_factory.base, [4 x i8], %class.obj_map.45, %class.ref_vector, %class.ref_vector.50, %class.ptr_vector.55 }
%class.value_factory.base = type <{ ptr, ptr, i32 }>
%class.obj_map.45 = type { %class.core_hashtable.46 }
%class.core_hashtable.46 = type <{ ptr, i32, i32, i32, [4 x i8] }>
%class.ref_vector.50 = type { %class.ref_vector_core.51 }
%class.ref_vector_core.51 = type { %class.ref_manager_wrapper.52, %class.ptr_vector.53 }
%class.ref_manager_wrapper.52 = type { ptr }
%class.ptr_vector.53 = type { %class.vector.54 }
%class.vector.54 = type { ptr }
%class.ptr_vector.55 = type { %class.vector.56 }
%class.vector.56 = type { ptr }
%class.user_sort_factory = type { %class.simple_factory, %class.obj_hashtable.57, %class.obj_hashtable.63 }
%class.obj_hashtable.57 = type { %class.core_hashtable.base.61, [4 x i8] }
%class.core_hashtable.base.61 = type <{ ptr, i32, i32, i32 }>
%class.obj_hashtable.63 = type { %class.core_hashtable.base.67, [4 x i8] }
%class.core_hashtable.base.67 = type <{ ptr, i32, i32, i32 }>
%class.core_hashtable.58 = type <{ ptr, i32, i32, i32, [4 x i8] }>
%class.obj_hash_entry.85 = type { ptr }
%class.decl_info = type <{ i32, i32, %class.vector.86, i8, [7 x i8] }>
%class.vector.86 = type { ptr }

; Function Attrs: mustprogress nounwind uwtable
define linkonce_odr hidden noundef zeroext i1 @_ZNK6ptr_eqI4sortEclEPS0_S2_(ptr noundef nonnull align 1 dereferenceable(1) %this, ptr noundef %a1, ptr noundef %a2) #5 comdat align 2 {
entry:
  %this.addr = alloca ptr, align 8
  %a1.addr = alloca ptr, align 8
  %a2.addr = alloca ptr, align 8
  store ptr %this, ptr %this.addr, align 8
  store ptr %a1, ptr %a1.addr, align 8
  store ptr %a2, ptr %a2.addr, align 8
  %0 = load ptr, ptr %a1.addr, align 8
  %1 = load ptr, ptr %a2.addr, align 8
  %cmp = icmp eq ptr %0, %1
  ret i1 %cmp
}

; Function Attrs: mustprogress nounwind uwtable
define linkonce_odr hidden noundef i32 @_ZNK3ast4hashEv(ptr noundef nonnull align 4 dereferenceable(16) %this) #5 comdat align 2 {
entry:
  %this.addr = alloca ptr, align 8
  store ptr %this, ptr %this.addr, align 8
  %this1 = load ptr, ptr %this.addr, align 8
  %m_hash = getelementptr inbounds %class.ast, ptr %this1, i32 0, i32 3
  %0 = load i32, ptr %m_hash, align 4
  ret i32 %0
}

; Function Attrs: mustprogress nounwind uwtable
define linkonce_odr hidden noundef i32 @_ZNK12obj_ptr_hashI4sortEclEPS0_(ptr noundef nonnull align 1 dereferenceable(1) %this, ptr noundef %a) #5 comdat align 2 {
entry:
  %this.addr = alloca ptr, align 8
  %a.addr = alloca ptr, align 8
  store ptr %this, ptr %this.addr, align 8
  store ptr %a, ptr %a.addr, align 8
  %0 = load ptr, ptr %a.addr, align 8
  %call = call noundef i32 @_ZNK3ast4hashEv(ptr noundef nonnull align 4 dereferenceable(16) %0)
  ret i32 %call
}

; Function Attrs: mustprogress nounwind uwtable
define linkonce_odr hidden noundef zeroext i1 @_ZNK14obj_hash_entryI4sortE7is_freeEv(ptr noundef nonnull align 8 dereferenceable(8) %this) #5 comdat align 2 {
entry:
  %this.addr = alloca ptr, align 8
  store ptr %this, ptr %this.addr, align 8
  %this1 = load ptr, ptr %this.addr, align 8
  %m_ptr = getelementptr inbounds %class.obj_hash_entry.85, ptr %this1, i32 0, i32 0
  %0 = load ptr, ptr %m_ptr, align 8
  %cmp = icmp eq ptr %0, null
  ret i1 %cmp
}

; Function Attrs: mustprogress uwtable
define linkonce_odr hidden noundef zeroext i1 @_ZNK14core_hashtableI14obj_hash_entryI4sortE12obj_ptr_hashIS1_E6ptr_eqIS1_EE6equalsERKPS1_SA_(ptr noundef nonnull align 8 dereferenceable(20) %this, ptr noundef nonnull align 8 dereferenceable(8) %e1, ptr noundef nonnull align 8 dereferenceable(8) %e2) #4 comdat align 2 {
entry:
  %this.addr = alloca ptr, align 8
  %e1.addr = alloca ptr, align 8
  %e2.addr = alloca ptr, align 8
  store ptr %this, ptr %this.addr, align 8
  store ptr %e1, ptr %e1.addr, align 8
  store ptr %e2, ptr %e2.addr, align 8
  %this1 = load ptr, ptr %this.addr, align 8
  %0 = load ptr, ptr %e1.addr, align 8
  %1 = load ptr, ptr %0, align 8
  %2 = load ptr, ptr %e2.addr, align 8
  %3 = load ptr, ptr %2, align 8
  %call = call noundef zeroext i1 @_ZNK6ptr_eqI4sortEclEPS0_S2_(ptr noundef nonnull align 1 dereferenceable(1) %this1, ptr noundef %1, ptr noundef %3)
  ret i1 %call
}

; Function Attrs: mustprogress nounwind uwtable
define linkonce_odr hidden noundef nonnull align 8 dereferenceable(8) ptr @_ZN14obj_hash_entryI4sortE8get_dataEv(ptr noundef nonnull align 8 dereferenceable(8) %this) #5 comdat align 2 {
entry:
  %this.addr = alloca ptr, align 8
  store ptr %this, ptr %this.addr, align 8
  %this1 = load ptr, ptr %this.addr, align 8
  %m_ptr = getelementptr inbounds %class.obj_hash_entry.85, ptr %this1, i32 0, i32 0
  ret ptr %m_ptr
}

; Function Attrs: mustprogress nounwind uwtable
define linkonce_odr hidden noundef i32 @_ZNK14obj_hash_entryI4sortE8get_hashEv(ptr noundef nonnull align 8 dereferenceable(8) %this) #5 comdat align 2 {
entry:
  %this.addr = alloca ptr, align 8
  store ptr %this, ptr %this.addr, align 8
  %this1 = load ptr, ptr %this.addr, align 8
  %m_ptr = getelementptr inbounds %class.obj_hash_entry.85, ptr %this1, i32 0, i32 0
  %0 = load ptr, ptr %m_ptr, align 8
  %call = call noundef i32 @_ZNK3ast4hashEv(ptr noundef nonnull align 4 dereferenceable(16) %0)
  ret i32 %call
}

; Function Attrs: mustprogress nounwind uwtable
define linkonce_odr hidden noundef zeroext i1 @_ZNK14obj_hash_entryI4sortE7is_usedEv(ptr noundef nonnull align 8 dereferenceable(8) %this) #5 comdat align 2 {
entry:
  %this.addr = alloca ptr, align 8
  store ptr %this, ptr %this.addr, align 8
  %this1 = load ptr, ptr %this.addr, align 8
  %m_ptr = getelementptr inbounds %class.obj_hash_entry.85, ptr %this1, i32 0, i32 0
  %0 = load ptr, ptr %m_ptr, align 8
  %cmp = icmp ne ptr %0, null
  br i1 %cmp, label %land.rhs, label %land.end

land.rhs:                                         ; preds = %entry
  %m_ptr2 = getelementptr inbounds %class.obj_hash_entry.85, ptr %this1, i32 0, i32 0
  %1 = load ptr, ptr %m_ptr2, align 8
  %cmp3 = icmp ne ptr %1, inttoptr (i64 1 to ptr)
  br label %land.end

land.end:                                         ; preds = %land.rhs, %entry
  %2 = phi i1 [ false, %entry ], [ %cmp3, %land.rhs ]
  ret i1 %2
}

; Function Attrs: mustprogress uwtable
define linkonce_odr hidden noundef i32 @_ZNK14core_hashtableI14obj_hash_entryI4sortE12obj_ptr_hashIS1_E6ptr_eqIS1_EE8get_hashERKPS1_(ptr noundef nonnull align 8 dereferenceable(20) %this, ptr noundef nonnull align 8 dereferenceable(8) %e) #4 comdat align 2 {
entry:
  %this.addr = alloca ptr, align 8
  %e.addr = alloca ptr, align 8
  store ptr %this, ptr %this.addr, align 8
  store ptr %e, ptr %e.addr, align 8
  %this1 = load ptr, ptr %this.addr, align 8
  %0 = load ptr, ptr %e.addr, align 8
  %1 = load ptr, ptr %0, align 8
  %call = call noundef i32 @_ZNK12obj_ptr_hashI4sortEclEPS0_(ptr noundef nonnull align 1 dereferenceable(1) %this1, ptr noundef %1)
  ret i32 %call
}

; Function Attrs: mustprogress uwtable
define linkonce_odr hidden noundef ptr @_ZNK14core_hashtableI14obj_hash_entryI4sortE12obj_ptr_hashIS1_E6ptr_eqIS1_EE9find_coreERKPS1_(ptr noundef nonnull align 8 dereferenceable(20) %this, ptr noundef nonnull align 8 dereferenceable(8) %e) #4 comdat align 2 {
entry:
  %retval = alloca ptr, align 8
  %this.addr = alloca ptr, align 8
  %e.addr = alloca ptr, align 8
  %hash = alloca i32, align 4
  %mask = alloca i32, align 4
  %idx = alloca i32, align 4
  %begin = alloca ptr, align 8
  %end = alloca ptr, align 8
  %curr = alloca ptr, align 8
  store ptr %this, ptr %this.addr, align 8
  store ptr %e, ptr %e.addr, align 8
  %this1 = load ptr, ptr %this.addr, align 8
  %0 = load ptr, ptr %e.addr, align 8
  %call = call noundef i32 @_ZNK14core_hashtableI14obj_hash_entryI4sortE12obj_ptr_hashIS1_E6ptr_eqIS1_EE8get_hashERKPS1_(ptr noundef nonnull align 8 dereferenceable(20) %this1, ptr noundef nonnull align 8 dereferenceable(8) %0)
  store i32 %call, ptr %hash, align 4
  %m_capacity = getelementptr inbounds %class.core_hashtable.58, ptr %this1, i32 0, i32 1
  %1 = load i32, ptr %m_capacity, align 8
  %sub = sub i32 %1, 1
  store i32 %sub, ptr %mask, align 4
  %2 = load i32, ptr %hash, align 4
  %3 = load i32, ptr %mask, align 4
  %and = and i32 %2, %3
  store i32 %and, ptr %idx, align 4
  %m_table = getelementptr inbounds %class.core_hashtable.58, ptr %this1, i32 0, i32 0
  %4 = load ptr, ptr %m_table, align 8
  %5 = load i32, ptr %idx, align 4
  %idx.ext = zext i32 %5 to i64
  %add.ptr = getelementptr inbounds %class.obj_hash_entry.85, ptr %4, i64 %idx.ext
  store ptr %add.ptr, ptr %begin, align 8
  %m_table2 = getelementptr inbounds %class.core_hashtable.58, ptr %this1, i32 0, i32 0
  %6 = load ptr, ptr %m_table2, align 8
  %m_capacity3 = getelementptr inbounds %class.core_hashtable.58, ptr %this1, i32 0, i32 1
  %7 = load i32, ptr %m_capacity3, align 8
  %idx.ext4 = zext i32 %7 to i64
  %add.ptr5 = getelementptr inbounds %class.obj_hash_entry.85, ptr %6, i64 %idx.ext4
  store ptr %add.ptr5, ptr %end, align 8
  %8 = load ptr, ptr %begin, align 8
  store ptr %8, ptr %curr, align 8
  br label %for.cond

for.cond:                                         ; preds = %for.inc, %entry
  %9 = load ptr, ptr %curr, align 8
  %10 = load ptr, ptr %end, align 8
  %cmp = icmp ne ptr %9, %10
  br i1 %cmp, label %for.body, label %for.end

for.body:                                         ; preds = %for.cond
  %11 = load ptr, ptr %curr, align 8
  %call6 = call noundef zeroext i1 @_ZNK14obj_hash_entryI4sortE7is_usedEv(ptr noundef nonnull align 8 dereferenceable(8) %11)
  br i1 %call6, label %if.then, label %if.else

if.then:                                          ; preds = %for.body
  %12 = load ptr, ptr %curr, align 8
  %call7 = call noundef i32 @_ZNK14obj_hash_entryI4sortE8get_hashEv(ptr noundef nonnull align 8 dereferenceable(8) %12)
  %13 = load i32, ptr %hash, align 4
  %cmp8 = icmp eq i32 %call7, %13
  br i1 %cmp8, label %land.lhs.true, label %if.end

land.lhs.true:                                    ; preds = %if.then
  %14 = load ptr, ptr %curr, align 8
  %call9 = call noundef nonnull align 8 dereferenceable(8) ptr @_ZN14obj_hash_entryI4sortE8get_dataEv(ptr noundef nonnull align 8 dereferenceable(8) %14)
  %15 = load ptr, ptr %e.addr, align 8
  %call10 = call noundef zeroext i1 @_ZNK14core_hashtableI14obj_hash_entryI4sortE12obj_ptr_hashIS1_E6ptr_eqIS1_EE6equalsERKPS1_SA_(ptr noundef nonnull align 8 dereferenceable(20) %this1, ptr noundef nonnull align 8 dereferenceable(8) %call9, ptr noundef nonnull align 8 dereferenceable(8) %15)
  br i1 %call10, label %if.then11, label %if.end

if.then11:                                        ; preds = %land.lhs.true
  %16 = load ptr, ptr %curr, align 8
  store ptr %16, ptr %retval, align 8
  br label %return

if.end:                                           ; preds = %land.lhs.true, %if.then
  br label %if.end16

if.else:                                          ; preds = %for.body
  %17 = load ptr, ptr %curr, align 8
  %call12 = call noundef zeroext i1 @_ZNK14obj_hash_entryI4sortE7is_freeEv(ptr noundef nonnull align 8 dereferenceable(8) %17)
  br i1 %call12, label %if.then13, label %if.else14

if.then13:                                        ; preds = %if.else
  store ptr null, ptr %retval, align 8
  br label %return

if.else14:                                        ; preds = %if.else
  br label %if.end15

if.end15:                                         ; preds = %if.else14
  br label %if.end16

if.end16:                                         ; preds = %if.end15, %if.end
  br label %for.inc

for.inc:                                          ; preds = %if.end16
  %18 = load ptr, ptr %curr, align 8
  %incdec.ptr = getelementptr inbounds %class.obj_hash_entry.85, ptr %18, i32 1
  store ptr %incdec.ptr, ptr %curr, align 8
  br label %for.cond, !llvm.loop !22

for.end:                                          ; preds = %for.cond
  %m_table17 = getelementptr inbounds %class.core_hashtable.58, ptr %this1, i32 0, i32 0
  %19 = load ptr, ptr %m_table17, align 8
  store ptr %19, ptr %curr, align 8
  br label %for.cond18

for.cond18:                                       ; preds = %for.inc36, %for.end
  %20 = load ptr, ptr %curr, align 8
  %21 = load ptr, ptr %begin, align 8
  %cmp19 = icmp ne ptr %20, %21
  br i1 %cmp19, label %for.body20, label %for.end38

for.body20:                                       ; preds = %for.cond18
  %22 = load ptr, ptr %curr, align 8
  %call21 = call noundef zeroext i1 @_ZNK14obj_hash_entryI4sortE7is_usedEv(ptr noundef nonnull align 8 dereferenceable(8) %22)
  br i1 %call21, label %if.then22, label %if.else30

if.then22:                                        ; preds = %for.body20
  %23 = load ptr, ptr %curr, align 8
  %call23 = call noundef i32 @_ZNK14obj_hash_entryI4sortE8get_hashEv(ptr noundef nonnull align 8 dereferenceable(8) %23)
  %24 = load i32, ptr %hash, align 4
  %cmp24 = icmp eq i32 %call23, %24
  br i1 %cmp24, label %land.lhs.true25, label %if.end29

land.lhs.true25:                                  ; preds = %if.then22
  %25 = load ptr, ptr %curr, align 8
  %call26 = call noundef nonnull align 8 dereferenceable(8) ptr @_ZN14obj_hash_entryI4sortE8get_dataEv(ptr noundef nonnull align 8 dereferenceable(8) %25)
  %26 = load ptr, ptr %e.addr, align 8
  %call27 = call noundef zeroext i1 @_ZNK14core_hashtableI14obj_hash_entryI4sortE12obj_ptr_hashIS1_E6ptr_eqIS1_EE6equalsERKPS1_SA_(ptr noundef nonnull align 8 dereferenceable(20) %this1, ptr noundef nonnull align 8 dereferenceable(8) %call26, ptr noundef nonnull align 8 dereferenceable(8) %26)
  br i1 %call27, label %if.then28, label %if.end29

if.then28:                                        ; preds = %land.lhs.true25
  %27 = load ptr, ptr %curr, align 8
  store ptr %27, ptr %retval, align 8
  br label %return

if.end29:                                         ; preds = %land.lhs.true25, %if.then22
  br label %if.end35

if.else30:                                        ; preds = %for.body20
  %28 = load ptr, ptr %curr, align 8
  %call31 = call noundef zeroext i1 @_ZNK14obj_hash_entryI4sortE7is_freeEv(ptr noundef nonnull align 8 dereferenceable(8) %28)
  br i1 %call31, label %if.then32, label %if.else33

if.then32:                                        ; preds = %if.else30
  store ptr null, ptr %retval, align 8
  br label %return

if.else33:                                        ; preds = %if.else30
  br label %if.end34

if.end34:                                         ; preds = %if.else33
  br label %if.end35

if.end35:                                         ; preds = %if.end34, %if.end29
  br label %for.inc36

for.inc36:                                        ; preds = %if.end35
  %29 = load ptr, ptr %curr, align 8
  %incdec.ptr37 = getelementptr inbounds %class.obj_hash_entry.85, ptr %29, i32 1
  store ptr %incdec.ptr37, ptr %curr, align 8
  br label %for.cond18, !llvm.loop !23

for.end38:                                        ; preds = %for.cond18
  store ptr null, ptr %retval, align 8
  br label %return

return:                                           ; preds = %for.end38, %if.then32, %if.then28, %if.then13, %if.then11
  %30 = load ptr, ptr %retval, align 8
  ret ptr %30
}

; Function Attrs: mustprogress nounwind uwtable
define linkonce_odr hidden noundef i32 @_ZNK9decl_info13get_family_idEv(ptr noundef nonnull align 8 dereferenceable(17) %this) #5 comdat align 2 {
entry:
  %this.addr = alloca ptr, align 8
  store ptr %this, ptr %this.addr, align 8
  %this1 = load ptr, ptr %this.addr, align 8
  %m_family_id = getelementptr inbounds %class.decl_info, ptr %this1, i32 0, i32 0
  %0 = load i32, ptr %m_family_id, align 8
  ret i32 %0
}

; Function Attrs: mustprogress uwtable
define linkonce_odr hidden noundef zeroext i1 @_ZNK14core_hashtableI14obj_hash_entryI4sortE12obj_ptr_hashIS1_E6ptr_eqIS1_EE8containsERKPS1_(ptr noundef nonnull align 8 dereferenceable(20) %this, ptr noundef nonnull align 8 dereferenceable(8) %e) #4 comdat align 2 {
entry:
  %this.addr = alloca ptr, align 8
  %e.addr = alloca ptr, align 8
  store ptr %this, ptr %this.addr, align 8
  store ptr %e, ptr %e.addr, align 8
  %this1 = load ptr, ptr %this.addr, align 8
  %0 = load ptr, ptr %e.addr, align 8
  %call = call noundef ptr @_ZNK14core_hashtableI14obj_hash_entryI4sortE12obj_ptr_hashIS1_E6ptr_eqIS1_EE9find_coreERKPS1_(ptr noundef nonnull align 8 dereferenceable(20) %this1, ptr noundef nonnull align 8 dereferenceable(8) %0)
  %cmp = icmp ne ptr %call, null
  ret i1 %cmp
}

; Function Attrs: mustprogress uwtable
define linkonce_odr hidden noundef i32 @_ZNK4decl13get_family_idEv(ptr noundef nonnull align 8 dereferenceable(32) %this) #4 comdat align 2 {
entry:
  %this.addr = alloca ptr, align 8
  store ptr %this, ptr %this.addr, align 8
  %this1 = load ptr, ptr %this.addr, align 8
  %m_info = getelementptr inbounds %class.decl, ptr %this1, i32 0, i32 2
  %0 = load ptr, ptr %m_info, align 8
  %cmp = icmp eq ptr %0, null
  br i1 %cmp, label %cond.true, label %cond.false

cond.true:                                        ; preds = %entry
  br label %cond.end

cond.false:                                       ; preds = %entry
  %m_info2 = getelementptr inbounds %class.decl, ptr %this1, i32 0, i32 2
  %1 = load ptr, ptr %m_info2, align 8
  %call = call noundef i32 @_ZNK9decl_info13get_family_idEv(ptr noundef nonnull align 8 dereferenceable(17) %1)
  br label %cond.end

cond.end:                                         ; preds = %cond.false, %cond.true
  %cond = phi i32 [ -1, %cond.true ], [ %call, %cond.false ]
  ret i32 %cond
}

; Function Attrs: mustprogress uwtable
define linkonce_odr hidden noundef zeroext i1 @_ZNK17user_sort_factory9is_finiteEP4sort(ptr noundef nonnull align 8 dereferenceable(136) %this, ptr noundef %s) #4 comdat align 2 {
entry:
  %this.addr = alloca ptr, align 8
  %s.addr = alloca ptr, align 8
  store ptr %this, ptr %this.addr, align 8
  store ptr %s, ptr %s.addr, align 8
  %this1 = load ptr, ptr %this.addr, align 8
  %m_finite = getelementptr inbounds %class.user_sort_factory, ptr %this1, i32 0, i32 1
  %call = call noundef zeroext i1 @_ZNK14core_hashtableI14obj_hash_entryI4sortE12obj_ptr_hashIS1_E6ptr_eqIS1_EE8containsERKPS1_(ptr noundef nonnull align 8 dereferenceable(20) %m_finite, ptr noundef nonnull align 8 dereferenceable(8) %s.addr)
  ret i1 %call
}

; Function Attrs: mustprogress uwtable
define linkonce_odr hidden noundef zeroext i1 @_ZNK11ast_manager11is_uninterpEPK4sort(ptr noundef nonnull align 8 dereferenceable(976) %this, ptr noundef %s) #4 comdat align 2 {
entry:
  %this.addr = alloca ptr, align 8
  %s.addr = alloca ptr, align 8
  store ptr %this, ptr %this.addr, align 8
  store ptr %s, ptr %s.addr, align 8
  %0 = load ptr, ptr %s.addr, align 8
  %call = call noundef i32 @_ZNK4decl13get_family_idEv(ptr noundef nonnull align 8 dereferenceable(32) %0)
  %cmp = icmp eq i32 %call, -1
  br i1 %cmp, label %lor.end, label %lor.rhs

lor.rhs:                                          ; preds = %entry
  %1 = load ptr, ptr %s.addr, align 8
  %call2 = call noundef i32 @_ZNK4decl13get_family_idEv(ptr noundef nonnull align 8 dereferenceable(32) %1)
  %cmp3 = icmp eq i32 %call2, 4
  br label %lor.end

lor.end:                                          ; preds = %lor.rhs, %entry
  %2 = phi i1 [ true, %entry ], [ %cmp3, %lor.rhs ]
  ret i1 %2
}

; Function Attrs: mustprogress uwtable
define hidden noundef zeroext i1 @_ZNK11proto_model9is_finiteEP4sort(ptr noundef nonnull align 8 dereferenceable(177) %this, ptr noundef %s) #4 align 2 {
entry:
  %this.addr = alloca ptr, align 8
  %s.addr = alloca ptr, align 8
  store ptr %this, ptr %this.addr, align 8
  store ptr %s, ptr %s.addr, align 8
  %this1 = load ptr, ptr %this.addr, align 8
  %m = getelementptr inbounds %class.model_core, ptr %this1, i32 0, i32 1
  %0 = load ptr, ptr %m, align 8
  %1 = load ptr, ptr %s.addr, align 8
  %call = call noundef zeroext i1 @_ZNK11ast_manager11is_uninterpEPK4sort(ptr noundef nonnull align 8 dereferenceable(976) %0, ptr noundef %1)
  br i1 %call, label %land.rhs, label %land.end

land.rhs:                                         ; preds = %entry
  %m_user_sort_factory = getelementptr inbounds %class.proto_model, ptr %this1, i32 0, i32 2
  %2 = load ptr, ptr %m_user_sort_factory, align 8
  %3 = load ptr, ptr %s.addr, align 8
  %call2 = call noundef zeroext i1 @_ZNK17user_sort_factory9is_finiteEP4sort(ptr noundef nonnull align 8 dereferenceable(136) %2, ptr noundef %3)
  br label %land.end

land.end:                                         ; preds = %land.rhs, %entry
  %4 = phi i1 [ false, %entry ], [ %call2, %land.rhs ]
  ret i1 %4
}