; Function Attrs: mustprogress nofree norecurse nosync nounwind willreturn memory(read, inaccessiblemem: none) uwtable
define hidden noundef zeroext i1 @_ZNK11proto_model9is_finiteEP4sort(ptr nocapture noundef nonnull readonly align 8 dereferenceable(177) %this, ptr noundef readonly %s) local_unnamed_addr #8 align 2 {
entry:
  %m_info.i.i = getelementptr inbounds i8, ptr %s, i64 24
  %0 = load ptr, ptr %m_info.i.i, align 8
  %cmp.i.i = icmp eq ptr %0, null
  br i1 %cmp.i.i, label %land.rhs, label %_ZNK11ast_manager11is_uninterpEPK4sort.exit

_ZNK11ast_manager11is_uninterpEPK4sort.exit:      ; preds = %entry
  %1 = load i32, ptr %0, align 8
  switch i32 %1, label %land.end [
    i32 -1, label %land.rhs
    i32 4, label %land.rhs
  ]

land.rhs:                                         ; preds = %_ZNK11ast_manager11is_uninterpEPK4sort.exit, %_ZNK11ast_manager11is_uninterpEPK4sort.exit, %entry
  %m_user_sort_factory = getelementptr inbounds i8, ptr %this, i64 112
  %2 = load ptr, ptr %m_user_sort_factory, align 8
  %m_finite.i = getelementptr inbounds i8, ptr %2, i64 88
  %m_hash.i.i.i.i.i.i = getelementptr inbounds i8, ptr %s, i64 12
  %3 = load i32, ptr %m_hash.i.i.i.i.i.i, align 4
  %m_capacity.i.i.i = getelementptr inbounds i8, ptr %2, i64 96
  %4 = load i32, ptr %m_capacity.i.i.i, align 8
  %sub.i.i.i = add i32 %4, -1
  %and.i.i.i = and i32 %sub.i.i.i, %3
  %5 = load ptr, ptr %m_finite.i, align 8
  %idx.ext.i.i.i = zext i32 %and.i.i.i to i64
  %add.ptr.i.i.i = getelementptr inbounds %class.obj_hash_entry.85, ptr %5, i64 %idx.ext.i.i.i
  %idx.ext4.i.i.i = zext i32 %4 to i64
  %add.ptr5.i.i.i = getelementptr inbounds %class.obj_hash_entry.85, ptr %5, i64 %idx.ext4.i.i.i
  %cmp.not30.i.i.i = icmp eq i32 %and.i.i.i, %4
  br i1 %cmp.not30.i.i.i, label %for.cond18.preheader.i.i.i, label %for.body.i.i.i

for.cond18.preheader.i.i.i:                       ; preds = %for.inc.i.i.i, %land.rhs
  %cmp19.not32.i.i.i = icmp eq i32 %and.i.i.i, 0
  br i1 %cmp19.not32.i.i.i, label %land.end, label %for.body20.i.i.i

for.body.i.i.i:                                   ; preds = %land.rhs, %for.inc.i.i.i
  %curr.031.i.i.i = phi ptr [ %incdec.ptr.i.i.i, %for.inc.i.i.i ], [ %add.ptr.i.i.i, %land.rhs ]
  %6 = load ptr, ptr %curr.031.i.i.i, align 8
  %magicptr25.i.i.i = ptrtoint ptr %6 to i64
  switch i64 %magicptr25.i.i.i, label %if.then.i.i.i [
    i64 0, label %land.end
    i64 1, label %for.inc.i.i.i
  ]

if.then.i.i.i:                                    ; preds = %for.body.i.i.i
  %m_hash.i.i.i.i.i = getelementptr inbounds i8, ptr %6, i64 12
  %7 = load i32, ptr %m_hash.i.i.i.i.i, align 4
  %cmp8.i.i.i = icmp eq i32 %7, %3
  %cmp.i.i.i.i.i = icmp eq ptr %6, %s
  %or.cond.i.i.i = and i1 %cmp.i.i.i.i.i, %cmp8.i.i.i
  br i1 %or.cond.i.i.i, label %land.end, label %for.inc.i.i.i

for.inc.i.i.i:                                    ; preds = %if.then.i.i.i, %for.body.i.i.i
  %incdec.ptr.i.i.i = getelementptr inbounds i8, ptr %curr.031.i.i.i, i64 8
  %cmp.not.i.i.i = icmp eq ptr %incdec.ptr.i.i.i, %add.ptr5.i.i.i
  br i1 %cmp.not.i.i.i, label %for.cond18.preheader.i.i.i, label %for.body.i.i.i, !llvm.loop !23

for.body20.i.i.i:                                 ; preds = %for.cond18.preheader.i.i.i, %for.inc36.i.i.i
  %curr.133.i.i.i = phi ptr [ %incdec.ptr37.i.i.i, %for.inc36.i.i.i ], [ %5, %for.cond18.preheader.i.i.i ]
  %8 = load ptr, ptr %curr.133.i.i.i, align 8
  %magicptr27.i.i.i = ptrtoint ptr %8 to i64
  switch i64 %magicptr27.i.i.i, label %if.then22.i.i.i [
    i64 0, label %land.end
    i64 1, label %for.inc36.i.i.i
  ]

if.then22.i.i.i:                                  ; preds = %for.body20.i.i.i
  %m_hash.i.i22.i.i.i = getelementptr inbounds i8, ptr %8, i64 12
  %9 = load i32, ptr %m_hash.i.i22.i.i.i, align 4
  %cmp24.i.i.i = icmp eq i32 %9, %3
  %cmp.i.i23.i.i.i = icmp eq ptr %8, %s
  %or.cond26.i.i.i = and i1 %cmp.i.i23.i.i.i, %cmp24.i.i.i
  br i1 %or.cond26.i.i.i, label %land.end, label %for.inc36.i.i.i

for.inc36.i.i.i:                                  ; preds = %if.then22.i.i.i, %for.body20.i.i.i
  %incdec.ptr37.i.i.i = getelementptr inbounds i8, ptr %curr.133.i.i.i, i64 8
  %cmp19.not.i.i.i = icmp eq ptr %incdec.ptr37.i.i.i, %add.ptr.i.i.i
  br i1 %cmp19.not.i.i.i, label %land.end, label %for.body20.i.i.i, !llvm.loop !24

land.end:                                         ; preds = %if.then.i.i.i, %for.body.i.i.i, %for.inc36.i.i.i, %if.then22.i.i.i, %for.body20.i.i.i, %_ZNK11ast_manager11is_uninterpEPK4sort.exit, %for.cond18.preheader.i.i.i
  %10 = phi i1 [ false, %_ZNK11ast_manager11is_uninterpEPK4sort.exit ], [ false, %for.cond18.preheader.i.i.i ], [ false, %for.body20.i.i.i ], [ true, %if.then22.i.i.i ], [ false, %for.inc36.i.i.i ], [ true, %if.then.i.i.i ], [ false, %for.body.i.i.i ]
  ret i1 %10
}